; Function Attrs: nounwind uwtable
define internal i32 @bio_core_puts(ptr noundef %0, ptr noundef %1) #0 {
  %3 = load ptr, ptr %0, align 8, !tbaa !20
  %4 = tail call ptr @ossl_lib_ctx_get_data(ptr noundef %3, i32 noundef 17) #3
  %5 = icmp eq ptr %4, null
  br i1 %5, label %13, label %6

6:                                                ; preds = %2
  %7 = getelementptr inbounds nuw i8, ptr %4, i64 24
  %8 = load ptr, ptr %7, align 8, !tbaa !15
  %9 = icmp eq ptr %8, null
  br i1 %9, label %13, label %10

10:                                               ; preds = %6
  %11 = tail call ptr @BIO_get_data(ptr noundef nonnull %0) #3
  %12 = tail call i32 %8(ptr noundef %11, ptr noundef %1) #3
  br label %13

13:                                               ; preds = %2, %6, %10
  %.0 = phi i32 [ %12, %10 ], [ -1, %6 ], [ -1, %2 ]
  ret i32 %.0
}